target datalayout = "e-m:e-p270:32:32-p271:32:32-p272:64:64-i64:64-i128:128-f80:128-n8:16:32:64-S128"
target triple = "x86_64-pc-linux-gnu"

%struct._object = type { %union.anon, ptr }
%union.anon = type { i64 }
%struct.PyVarObject = type { %struct._object, i64 }
%struct.arrayobject = type { %struct.PyVarObject, ptr, i64, ptr, ptr, i64 }

; Function Attrs: nounwind uwtable
define internal ptr @i_getitem(ptr noundef %0, i64 noundef %1) #0 {
  %3 = alloca ptr, align 8
  %4 = alloca i64, align 8
  store ptr %0, ptr %3, align 8, !tbaa !68
  store i64 %1, ptr %4, align 8, !tbaa !21
  %5 = load ptr, ptr %3, align 8, !tbaa !68
  %6 = getelementptr inbounds nuw %struct.arrayobject, ptr %5, i32 0, i32 1
  %7 = load ptr, ptr %6, align 8, !tbaa !70
  %8 = load i64, ptr %4, align 8, !tbaa !21
  %9 = getelementptr i32, ptr %7, i64 %8
  %10 = load i32, ptr %9, align 4, !tbaa !12
  %11 = sext i32 %10 to i64
  %12 = call ptr @PyLong_FromLong(i64 noundef %11)
  ret ptr %12
}