; Function Attrs: nounwind uwtable
define internal ptr @i_getitem(ptr noundef readonly captures(none) %0, i64 noundef %1) #0 {
  %3 = getelementptr inbounds nuw i8, ptr %0, i64 24
  %4 = load ptr, ptr %3, align 8, !tbaa !53
  %5 = getelementptr i32, ptr %4, i64 %1
  %6 = load i32, ptr %5, align 4, !tbaa !34
  %7 = sext i32 %6 to i64
  %8 = tail call ptr @PyLong_FromLong(i64 noundef %7) #11
  ret ptr %8
}